target datalayout = "e-m:e-p270:32:32-p271:32:32-p272:64:64-i64:64-i128:128-f80:128-n8:16:32:64-S128"
target triple = "x86_64-pc-linux-gnu"

%struct.H5C_class_t = type { i32, ptr, i32, i32, ptr, ptr, ptr, ptr, ptr, ptr, ptr, ptr, ptr, ptr }
%struct.H5B2_leaf_t = type { %struct.H5C_cache_entry_t, ptr, ptr, i16, ptr, ptr, i64 }
%struct.H5C_cache_entry_t = type { ptr, i64, i64, ptr, i8, ptr, i8, i8, i8, i8, i32, i8, i8, i8, i8, i8, i32, ptr, i32, i32, i32, i32, i32, i8, i8, ptr, ptr, ptr, ptr, ptr, ptr, i8, i32, i8, i64, ptr, i64, i64, i32, i8, i32, i32, i8, ptr, ptr, ptr }
%struct.H5B2_hdr_t = type { %struct.H5C_cache_entry_t, %struct.H5B2_node_ptr_t, i8, i8, i32, i32, i16, i8, ptr, i64, i64, i64, i64, i8, i8, i8, ptr, ptr, ptr, ptr, ptr, ptr, ptr, i8, ptr, ptr, i64, ptr, ptr }
%struct.H5B2_node_ptr_t = type { i64, i16, i64 }
%struct.H5B2_leaf_cache_ud_t = type { ptr, ptr, ptr, i16 }

@.str.1 = private unnamed_addr constant [102 x i8] c"generated/home/dtcxzyw/WorkSpace/Projects/compilers/llvm-opt-benchmark/bench/hdf5/hdf5/src/H5B2leaf.c\00", align 1
@H5E_BTREE_g = external global i64, align 8
@H5AC_BT2_LEAF = external constant [1 x %struct.H5C_class_t], align 16
@H5E_CANTSET_g = external global i64, align 8
@__func__.H5B2__protect_leaf = private unnamed_addr constant [19 x i8] c"H5B2__protect_leaf\00", align 1
@H5E_CANTPROTECT_g = external global i64, align 8
@.str.11 = private unnamed_addr constant [35 x i8] c"unable to protect B-tree leaf node\00", align 1
@.str.12 = private unnamed_addr constant [52 x i8] c"unable to add v2 B-tree leaf node as child of proxy\00", align 1
@H5E_CANTCOPY_g = external global i64, align 8
@.str.13 = private unnamed_addr constant [27 x i8] c"unable to shadow leaf node\00", align 1
@H5E_CANTUNDEPEND_g = external global i64, align 8
@.str.14 = private unnamed_addr constant [79 x i8] c"unable to destroy flush dependency between leaf node and v2 B-tree 'top' proxy\00", align 1
@H5E_CANTUNPROTECT_g = external global i64, align 8
@.str.15 = private unnamed_addr constant [56 x i8] c"unable to unprotect v2 B-tree leaf node, address = %llu\00", align 1

; Function Attrs: nounwind uwtable
define ptr @H5B2__protect_leaf(ptr noundef %0, ptr noundef %1, ptr noundef %2, i1 noundef zeroext %3, i32 noundef %4) #0 {
  %6 = alloca ptr, align 8
  %7 = alloca ptr, align 8
  %8 = alloca ptr, align 8
  %9 = alloca i8, align 1
  %10 = alloca i32, align 4
  %11 = alloca %struct.H5B2_leaf_cache_ud_t, align 8
  %12 = alloca ptr, align 8
  %13 = alloca ptr, align 8
  %14 = alloca i8, align 1
  store ptr %0, ptr %6, align 8
  store ptr %1, ptr %7, align 8
  store ptr %2, ptr %8, align 8
  %15 = zext i1 %3 to i8
  store i8 %15, ptr %9, align 1
  store i32 %4, ptr %10, align 4
  store ptr null, ptr %13, align 8
  store i8 0, ptr %14, align 1
  %16 = load ptr, ptr %6, align 8
  %17 = getelementptr inbounds %struct.H5B2_hdr_t, ptr %16, i32 0, i32 8
  %18 = load ptr, ptr %17, align 8
  %19 = getelementptr inbounds %struct.H5B2_leaf_cache_ud_t, ptr %11, i32 0, i32 0
  store ptr %18, ptr %19, align 8
  %20 = load ptr, ptr %6, align 8
  %21 = getelementptr inbounds %struct.H5B2_leaf_cache_ud_t, ptr %11, i32 0, i32 1
  store ptr %20, ptr %21, align 8
  %22 = load ptr, ptr %7, align 8
  %23 = getelementptr inbounds %struct.H5B2_leaf_cache_ud_t, ptr %11, i32 0, i32 2
  store ptr %22, ptr %23, align 8
  %24 = load ptr, ptr %8, align 8
  %25 = getelementptr inbounds %struct.H5B2_node_ptr_t, ptr %24, i32 0, i32 1
  %26 = load i16, ptr %25, align 8
  %27 = getelementptr inbounds %struct.H5B2_leaf_cache_ud_t, ptr %11, i32 0, i32 3
  store i16 %26, ptr %27, align 8
  %28 = load ptr, ptr %6, align 8
  %29 = getelementptr inbounds %struct.H5B2_hdr_t, ptr %28, i32 0, i32 8
  %30 = load ptr, ptr %29, align 8
  %31 = load ptr, ptr %8, align 8
  %32 = getelementptr inbounds %struct.H5B2_node_ptr_t, ptr %31, i32 0, i32 0
  %33 = load i64, ptr %32, align 8
  %34 = load i32, ptr %10, align 4
  %35 = call ptr @H5AC_protect(ptr noundef %30, ptr noundef @H5AC_BT2_LEAF, i64 noundef %33, ptr noundef %11, i32 noundef %34)
  store ptr %35, ptr %12, align 8
  %36 = icmp eq ptr null, %35
  br i1 %36, label %37, label %52

37:                                               ; preds = %5
  br label %38

38:                                               ; preds = %37
  br label %39

39:                                               ; preds = %38
  br label %40

40:                                               ; preds = %39
  %41 = load i64, ptr @H5E_BTREE_g, align 8
  %42 = load i64, ptr @H5E_CANTPROTECT_g, align 8
  %43 = call i32 (ptr, ptr, i32, i64, i64, ptr, ...) @H5E_printf_stack(ptr noundef @.str.1, ptr noundef @__func__.H5B2__protect_leaf, i32 noundef 189, i64 noundef %41, i64 noundef %42, ptr noundef @.str.11)
  br label %44

44:                                               ; preds = %40
  store i8 1, ptr %14, align 1
  %45 = load i8, ptr %14, align 1
  %46 = trunc i8 %45 to i1
  %47 = zext i1 %46 to i8
  store i8 %47, ptr %14, align 1
  br label %48

48:                                               ; preds = %44
  br label %49

49:                                               ; preds = %48
  store ptr null, ptr %13, align 8
  br label %119

50:                                               ; No predecessors!
  br label %51

51:                                               ; preds = %50
  br label %52

52:                                               ; preds = %51, %5
  %53 = load ptr, ptr %6, align 8
  %54 = getelementptr inbounds %struct.H5B2_hdr_t, ptr %53, i32 0, i32 24
  %55 = load ptr, ptr %54, align 8
  %56 = icmp ne ptr %55, null
  br i1 %56, label %57, label %93

57:                                               ; preds = %52
  %58 = load ptr, ptr %12, align 8
  %59 = getelementptr inbounds %struct.H5B2_leaf_t, ptr %58, i32 0, i32 4
  %60 = load ptr, ptr %59, align 8
  %61 = icmp eq ptr null, %60
  br i1 %61, label %62, label %93

62:                                               ; preds = %57
  %63 = load ptr, ptr %6, align 8
  %64 = getelementptr inbounds %struct.H5B2_hdr_t, ptr %63, i32 0, i32 24
  %65 = load ptr, ptr %64, align 8
  %66 = load ptr, ptr %6, align 8
  %67 = getelementptr inbounds %struct.H5B2_hdr_t, ptr %66, i32 0, i32 8
  %68 = load ptr, ptr %67, align 8
  %69 = load ptr, ptr %12, align 8
  %70 = call i32 @H5AC_proxy_entry_add_child(ptr noundef %65, ptr noundef %68, ptr noundef %69)
  %71 = icmp slt i32 %70, 0
  br i1 %71, label %72, label %87

72:                                               ; preds = %62
  br label %73

73:                                               ; preds = %72
  br label %74

74:                                               ; preds = %73
  br label %75

75:                                               ; preds = %74
  %76 = load i64, ptr @H5E_BTREE_g, align 8
  %77 = load i64, ptr @H5E_CANTSET_g, align 8
  %78 = call i32 (ptr, ptr, i32, i64, i64, ptr, ...) @H5E_printf_stack(ptr noundef @.str.1, ptr noundef @__func__.H5B2__protect_leaf, i32 noundef 195, i64 noundef %76, i64 noundef %77, ptr noundef @.str.12)
  br label %79

79:                                               ; preds = %75
  store i8 1, ptr %14, align 1
  %80 = load i8, ptr %14, align 1
  %81 = trunc i8 %80 to i1
  %82 = zext i1 %81 to i8
  store i8 %82, ptr %14, align 1
  br label %83

83:                                               ; preds = %79
  br label %84

84:                                               ; preds = %83
  store ptr null, ptr %13, align 8
  br label %119

85:                                               ; No predecessors!
  br label %86

86:                                               ; preds = %85
  br label %87

87:                                               ; preds = %86, %62
  %88 = load ptr, ptr %6, align 8
  %89 = getelementptr inbounds %struct.H5B2_hdr_t, ptr %88, i32 0, i32 24
  %90 = load ptr, ptr %89, align 8
  %91 = load ptr, ptr %12, align 8
  %92 = getelementptr inbounds %struct.H5B2_leaf_t, ptr %91, i32 0, i32 4
  store ptr %90, ptr %92, align 8
  br label %93

93:                                               ; preds = %87, %57, %52
  %94 = load i8, ptr %9, align 1
  %95 = trunc i8 %94 to i1
  br i1 %95, label %96, label %117

96:                                               ; preds = %93
  %97 = load ptr, ptr %12, align 8
  %98 = load ptr, ptr %8, align 8
  %99 = call i32 @H5B2__shadow_leaf(ptr noundef %97, ptr noundef %98)
  %100 = icmp slt i32 %99, 0
  br i1 %100, label %101, label %116

101:                                              ; preds = %96
  br label %102

102:                                              ; preds = %101
  br label %103

103:                                              ; preds = %102
  br label %104

104:                                              ; preds = %103
  %105 = load i64, ptr @H5E_BTREE_g, align 8
  %106 = load i64, ptr @H5E_CANTCOPY_g, align 8
  %107 = call i32 (ptr, ptr, i32, i64, i64, ptr, ...) @H5E_printf_stack(ptr noundef @.str.1, ptr noundef @__func__.H5B2__protect_leaf, i32 noundef 202, i64 noundef %105, i64 noundef %106, ptr noundef @.str.13)
  br label %108

108:                                              ; preds = %104
  store i8 1, ptr %14, align 1
  %109 = load i8, ptr %14, align 1
  %110 = trunc i8 %109 to i1
  %111 = zext i1 %110 to i8
  store i8 %111, ptr %14, align 1
  br label %112

112:                                              ; preds = %108
  br label %113

113:                                              ; preds = %112
  store ptr null, ptr %13, align 8
  br label %119

114:                                              ; No predecessors!
  br label %115

115:                                              ; preds = %114
  br label %116

116:                                              ; preds = %115, %96
  br label %117

117:                                              ; preds = %116, %93
  %118 = load ptr, ptr %12, align 8
  store ptr %118, ptr %13, align 8
  br label %119

119:                                              ; preds = %117, %113, %84, %49
  %120 = load ptr, ptr %13, align 8
  %121 = icmp ne ptr %120, null
  br i1 %121, label %181, label %122

122:                                              ; preds = %119
  %123 = load ptr, ptr %12, align 8
  %124 = icmp ne ptr %123, null
  br i1 %124, label %125, label %180

125:                                              ; preds = %122
  %126 = load ptr, ptr %12, align 8
  %127 = getelementptr inbounds %struct.H5B2_leaf_t, ptr %126, i32 0, i32 4
  %128 = load ptr, ptr %127, align 8
  %129 = icmp ne ptr %128, null
  br i1 %129, label %130, label %153

130:                                              ; preds = %125
  %131 = load ptr, ptr %12, align 8
  %132 = getelementptr inbounds %struct.H5B2_leaf_t, ptr %131, i32 0, i32 4
  %133 = load ptr, ptr %132, align 8
  %134 = load ptr, ptr %12, align 8
  %135 = call i32 @H5AC_proxy_entry_remove_child(ptr noundef %133, ptr noundef %134)
  %136 = icmp slt i32 %135, 0
  br i1 %136, label %137, label %150

137:                                              ; preds = %130
  br label %138

138:                                              ; preds = %137
  br label %139

139:                                              ; preds = %138
  br label %140

140:                                              ; preds = %139
  %141 = load i64, ptr @H5E_BTREE_g, align 8
  %142 = load i64, ptr @H5E_CANTUNDEPEND_g, align 8
  %143 = call i32 (ptr, ptr, i32, i64, i64, ptr, ...) @H5E_printf_stack(ptr noundef @.str.1, ptr noundef @__func__.H5B2__protect_leaf, i32 noundef 217, i64 noundef %141, i64 noundef %142, ptr noundef @.str.14)
  br label %144

144:                                              ; preds = %140
  store i8 1, ptr %14, align 1
  %145 = load i8, ptr %14, align 1
  %146 = trunc i8 %145 to i1
  %147 = zext i1 %146 to i8
  store i8 %147, ptr %14, align 1
  br label %148

148:                                              ; preds = %144
  store ptr null, ptr %13, align 8
  br label %149

149:                                              ; preds = %148
  br label %150

150:                                              ; preds = %149, %130
  %151 = load ptr, ptr %12, align 8
  %152 = getelementptr inbounds %struct.H5B2_leaf_t, ptr %151, i32 0, i32 4
  store ptr null, ptr %152, align 8
  br label %153

153:                                              ; preds = %150, %125
  %154 = load ptr, ptr %6, align 8
  %155 = getelementptr inbounds %struct.H5B2_hdr_t, ptr %154, i32 0, i32 8
  %156 = load ptr, ptr %155, align 8
  %157 = load ptr, ptr %8, align 8
  %158 = getelementptr inbounds %struct.H5B2_node_ptr_t, ptr %157, i32 0, i32 0
  %159 = load i64, ptr %158, align 8
  %160 = load ptr, ptr %12, align 8
  %161 = call i32 @H5AC_unprotect(ptr noundef %156, ptr noundef @H5AC_BT2_LEAF, i64 noundef %159, ptr noundef %160, i32 noundef 0)
  %162 = icmp slt i32 %161, 0
  br i1 %162, label %163, label %179

163:                                              ; preds = %153
  br label %164

164:                                              ; preds = %163
  br label %165

165:                                              ; preds = %164
  br label %166

166:                                              ; preds = %165
  %167 = load i64, ptr @H5E_BTREE_g, align 8
  %168 = load i64, ptr @H5E_CANTUNPROTECT_g, align 8
  %169 = load ptr, ptr %8, align 8
  %170 = getelementptr inbounds %struct.H5B2_node_ptr_t, ptr %169, i32 0, i32 0
  %171 = load i64, ptr %170, align 8
  %172 = call i32 (ptr, ptr, i32, i64, i64, ptr, ...) @H5E_printf_stack(ptr noundef @.str.1, ptr noundef @__func__.H5B2__protect_leaf, i32 noundef 225, i64 noundef %167, i64 noundef %168, ptr noundef @.str.15, i64 noundef %171)
  br label %173

173:                                              ; preds = %166
  store i8 1, ptr %14, align 1
  %174 = load i8, ptr %14, align 1
  %175 = trunc i8 %174 to i1
  %176 = zext i1 %175 to i8
  store i8 %176, ptr %14, align 1
  br label %177

177:                                              ; preds = %173
  store ptr null, ptr %13, align 8
  br label %178

178:                                              ; preds = %177
  br label %179

179:                                              ; preds = %178, %153
  br label %180

180:                                              ; preds = %179, %122
  br label %181

181:                                              ; preds = %180, %119
  %182 = load ptr, ptr %13, align 8
  ret ptr %182
}