; Function Attrs: nounwind uwtable
define ptr @H5B2__protect_leaf(ptr noundef %0, ptr noundef %1, ptr noundef captures(none) %2, i1 noundef zeroext %3, i32 noundef %4) local_unnamed_addr #0 {
  %6 = alloca %struct.H5B2_leaf_cache_ud_t, align 8
  %7 = getelementptr inbounds nuw i8, ptr %0, i64 288
  %8 = load ptr, ptr %7, align 8
  store ptr %8, ptr %6, align 8
  %9 = getelementptr inbounds nuw i8, ptr %6, i64 8
  store ptr %0, ptr %9, align 8
  %10 = getelementptr inbounds nuw i8, ptr %6, i64 16
  store ptr %1, ptr %10, align 8
  %11 = getelementptr inbounds nuw i8, ptr %2, i64 8
  %12 = load i16, ptr %11, align 8
  %13 = getelementptr inbounds nuw i8, ptr %6, i64 24
  store i16 %12, ptr %13, align 8
  %14 = load i64, ptr %2, align 8
  %15 = call ptr @H5AC_protect(ptr noundef %8, ptr noundef nonnull @H5AC_BT2_LEAF, i64 noundef %14, ptr noundef nonnull %6, i32 noundef %4) #5
  %16 = icmp eq ptr %15, null
  br i1 %16, label %17, label %21

17:                                               ; preds = %5
  %18 = load i64, ptr @H5E_BTREE_g, align 8
  %19 = load i64, ptr @H5E_CANTPROTECT_g, align 8
  %20 = call i32 (ptr, ptr, i32, i64, i64, ptr, ...) @H5E_printf_stack(ptr noundef nonnull @.str.1, ptr noundef nonnull @__func__.H5B2__protect_leaf, i32 noundef 189, i64 noundef %18, i64 noundef %19, ptr noundef nonnull @.str.11) #5
  br label %.thread

21:                                               ; preds = %5
  %22 = getelementptr inbounds nuw i8, ptr %0, i64 400
  %23 = load ptr, ptr %22, align 8
  %.not = icmp eq ptr %23, null
  br i1 %.not, label %38, label %24

24:                                               ; preds = %21
  %25 = getelementptr inbounds nuw i8, ptr %15, i64 272
  %26 = load ptr, ptr %25, align 8
  %27 = icmp eq ptr %26, null
  br i1 %27, label %28, label %38

28:                                               ; preds = %24
  %29 = load ptr, ptr %7, align 8
  %30 = call i32 @H5AC_proxy_entry_add_child(ptr noundef nonnull %23, ptr noundef %29, ptr noundef nonnull %15) #5
  %31 = icmp slt i32 %30, 0
  br i1 %31, label %32, label %36

32:                                               ; preds = %28
  %33 = load i64, ptr @H5E_BTREE_g, align 8
  %34 = load i64, ptr @H5E_CANTSET_g, align 8
  %35 = call i32 (ptr, ptr, i32, i64, i64, ptr, ...) @H5E_printf_stack(ptr noundef nonnull @.str.1, ptr noundef nonnull @__func__.H5B2__protect_leaf, i32 noundef 195, i64 noundef %33, i64 noundef %34, ptr noundef nonnull @.str.12) #5
  br label %46

36:                                               ; preds = %28
  %37 = load ptr, ptr %22, align 8
  store ptr %37, ptr %25, align 8
  br label %38

38:                                               ; preds = %36, %24, %21
  br i1 %3, label %39, label %.thread

39:                                               ; preds = %38
  %40 = call fastcc i32 @H5B2__shadow_leaf(ptr noundef %15, ptr noundef nonnull %2)
  %41 = icmp slt i32 %40, 0
  br i1 %41, label %42, label %.thread

42:                                               ; preds = %39
  %43 = load i64, ptr @H5E_BTREE_g, align 8
  %44 = load i64, ptr @H5E_CANTCOPY_g, align 8
  %45 = call i32 (ptr, ptr, i32, i64, i64, ptr, ...) @H5E_printf_stack(ptr noundef nonnull @.str.1, ptr noundef nonnull @__func__.H5B2__protect_leaf, i32 noundef 202, i64 noundef %43, i64 noundef %44, ptr noundef nonnull @.str.13) #5
  br label %46

46:                                               ; preds = %32, %42
  %47 = getelementptr inbounds nuw i8, ptr %15, i64 272
  %48 = load ptr, ptr %47, align 8
  %.not38 = icmp eq ptr %48, null
  br i1 %.not38, label %57, label %49

49:                                               ; preds = %46
  %50 = call i32 @H5AC_proxy_entry_remove_child(ptr noundef nonnull %48, ptr noundef nonnull %15) #5
  %51 = icmp slt i32 %50, 0
  br i1 %51, label %52, label %56

52:                                               ; preds = %49
  %53 = load i64, ptr @H5E_BTREE_g, align 8
  %54 = load i64, ptr @H5E_CANTUNDEPEND_g, align 8
  %55 = call i32 (ptr, ptr, i32, i64, i64, ptr, ...) @H5E_printf_stack(ptr noundef nonnull @.str.1, ptr noundef nonnull @__func__.H5B2__protect_leaf, i32 noundef 217, i64 noundef %53, i64 noundef %54, ptr noundef nonnull @.str.14) #5
  br label %56

56:                                               ; preds = %52, %49
  store ptr null, ptr %47, align 8
  br label %57

57:                                               ; preds = %56, %46
  %58 = load ptr, ptr %7, align 8
  %59 = load i64, ptr %2, align 8
  %60 = call i32 @H5AC_unprotect(ptr noundef %58, ptr noundef nonnull @H5AC_BT2_LEAF, i64 noundef %59, ptr noundef nonnull %15, i32 noundef 0) #5
  %61 = icmp slt i32 %60, 0
  br i1 %61, label %62, label %.thread

62:                                               ; preds = %57
  %63 = load i64, ptr @H5E_BTREE_g, align 8
  %64 = load i64, ptr @H5E_CANTUNPROTECT_g, align 8
  %65 = load i64, ptr %2, align 8
  %66 = call i32 (ptr, ptr, i32, i64, i64, ptr, ...) @H5E_printf_stack(ptr noundef nonnull @.str.1, ptr noundef nonnull @__func__.H5B2__protect_leaf, i32 noundef 225, i64 noundef %63, i64 noundef %64, ptr noundef nonnull @.str.15, i64 noundef %65) #5
  br label %.thread

.thread:                                          ; preds = %17, %38, %39, %62, %57
  %.1 = phi ptr [ null, %62 ], [ null, %57 ], [ %15, %38 ], [ %15, %39 ], [ null, %17 ]
  ret ptr %.1
}